target datalayout = "e-m:e-p270:32:32-p271:32:32-p272:64:64-i64:64-i128:128-f80:128-n8:16:32:64-S128"
target triple = "x86_64-pc-linux-gnu"

%struct.acn_pdu_offsets = type { i32, i32, i32, i32, i32 }
%struct._packet_info = type { ptr, ptr, i32, i32, %struct.nstime_t, %struct.nstime_t, %struct.nstime_t, i8, ptr, ptr, ptr, ptr, %struct._address, %struct._address, %struct._address, %struct._address, %struct._address, %struct._address, i32, ptr, i8, [3 x i8], %struct.anon, i32, i32, i32, i32, ptr, i8, ptr, ptr, i16, i16, i32, i32, i16, i32, i32, ptr, ptr, ptr, i8, i8, i16, i16, i16, i32, i16, i16, ptr, ptr, ptr, ptr, ptr, i32, i32 }
%struct.nstime_t = type { i64, i32 }
%struct._address = type { i32, i32, ptr, ptr }
%struct.anon = type { i8, [3 x i8] }
%struct._e_guid_t = type { i32, i16, i16, [8 x i8] }

@hf_acn_cid = internal global i32 0, align 4
@hf_rdmnet_cid = internal global i32 0, align 4
@.str.749 = private unnamed_addr constant [3 x i8] c"%s\00", align 1
@.str.750 = private unnamed_addr constant [10 x i8] c", Src: %s\00", align 1
@.str.751 = private unnamed_addr constant [7 x i8] c"CID %s\00", align 1

; Function Attrs: nounwind null_pointer_is_valid sspstrong uwtable
define internal void @dissect_pdu_bit_flag_d(i32 noundef %0, i8 noundef zeroext %1, i32 noundef %2, ptr noundef %3, ptr noundef %4, ptr noundef %5, i32 noundef %6, i1 noundef zeroext %7) #4 {
  %9 = alloca i32, align 4
  %10 = alloca i8, align 1
  %11 = alloca i32, align 4
  %12 = alloca ptr, align 8
  %13 = alloca ptr, align 8
  %14 = alloca ptr, align 8
  %15 = alloca i32, align 4
  %16 = alloca i8, align 1
  store i32 %0, ptr %9, align 4
  store i8 %1, ptr %10, align 1
  store i32 %2, ptr %11, align 4
  store ptr %3, ptr %12, align 8
  store ptr %4, ptr %13, align 8
  store ptr %5, ptr %14, align 8
  store i32 %6, ptr %15, align 4
  %17 = zext i1 %7 to i8
  store i8 %17, ptr %16, align 1
  %18 = load i8, ptr %10, align 1
  %19 = zext i8 %18 to i32
  %20 = and i32 %19, 16
  %21 = icmp ne i32 %20, 0
  br i1 %21, label %22, label %36

22:                                               ; preds = %8
  %23 = load i32, ptr %9, align 4
  %24 = load ptr, ptr %12, align 8
  store i32 %23, ptr %24, align 4
  %25 = load i32, ptr %11, align 4
  %26 = load i32, ptr %15, align 4
  %27 = sub i32 %25, %26
  %28 = load ptr, ptr %13, align 8
  store i32 %27, ptr %28, align 4
  %29 = load i32, ptr %9, align 4
  %30 = load ptr, ptr %14, align 8
  %31 = getelementptr inbounds nuw %struct.acn_pdu_offsets, ptr %30, i32 0, i32 3
  store i32 %29, ptr %31, align 4
  %32 = load ptr, ptr %13, align 8
  %33 = load i32, ptr %32, align 4
  %34 = load ptr, ptr %14, align 8
  %35 = getelementptr inbounds nuw %struct.acn_pdu_offsets, ptr %34, i32 0, i32 4
  store i32 %33, ptr %35, align 4
  br label %49

36:                                               ; preds = %8
  %37 = load ptr, ptr %14, align 8
  %38 = getelementptr inbounds nuw %struct.acn_pdu_offsets, ptr %37, i32 0, i32 3
  %39 = load i32, ptr %38, align 4
  %40 = load ptr, ptr %12, align 8
  store i32 %39, ptr %40, align 4
  %41 = load i8, ptr %16, align 1, !range !9, !noundef !10
  %42 = trunc i8 %41 to i1
  br i1 %42, label %43, label %48

43:                                               ; preds = %36
  %44 = load ptr, ptr %14, align 8
  %45 = getelementptr inbounds nuw %struct.acn_pdu_offsets, ptr %44, i32 0, i32 4
  %46 = load i32, ptr %45, align 4
  %47 = load ptr, ptr %13, align 8
  store i32 %46, ptr %47, align 4
  br label %48

48:                                               ; preds = %43, %36
  br label %49

49:                                               ; preds = %48, %22
  ret void
}

; Function Attrs: nounwind null_pointer_is_valid sspstrong uwtable
define internal void @dissect_pdu_bit_flag_h(ptr noundef %0, i8 noundef zeroext %1, ptr noundef %2, ptr noundef %3, ptr noundef %4, i8 noundef zeroext %5) #4 {
  %7 = alloca ptr, align 8
  %8 = alloca i8, align 1
  %9 = alloca ptr, align 8
  %10 = alloca ptr, align 8
  %11 = alloca ptr, align 8
  %12 = alloca i8, align 1
  store ptr %0, ptr %7, align 8
  store i8 %1, ptr %8, align 1
  store ptr %2, ptr %9, align 8
  store ptr %3, ptr %10, align 8
  store ptr %4, ptr %11, align 8
  store i8 %5, ptr %12, align 1
  %13 = load i8, ptr %8, align 1
  %14 = zext i8 %13 to i32
  %15 = and i32 %14, 32
  %16 = icmp ne i32 %15, 0
  br i1 %16, label %17, label %35

17:                                               ; preds = %6
  %18 = load ptr, ptr %7, align 8
  %19 = load i32, ptr %18, align 4
  %20 = load ptr, ptr %9, align 8
  store i32 %19, ptr %20, align 4
  %21 = load ptr, ptr %7, align 8
  %22 = load i32, ptr %21, align 4
  %23 = load ptr, ptr %10, align 8
  %24 = getelementptr inbounds nuw %struct.acn_pdu_offsets, ptr %23, i32 0, i32 2
  store i32 %22, ptr %24, align 4
  %25 = load i8, ptr %12, align 1
  %26 = zext i8 %25 to i32
  %27 = load ptr, ptr %7, align 8
  %28 = load i32, ptr %27, align 4
  %29 = add i32 %28, %26
  store i32 %29, ptr %27, align 4
  %30 = load i8, ptr %12, align 1
  %31 = zext i8 %30 to i32
  %32 = load ptr, ptr %11, align 8
  %33 = load i32, ptr %32, align 4
  %34 = add i32 %33, %31
  store i32 %34, ptr %32, align 4
  br label %40

35:                                               ; preds = %6
  %36 = load ptr, ptr %10, align 8
  %37 = getelementptr inbounds nuw %struct.acn_pdu_offsets, ptr %36, i32 0, i32 2
  %38 = load i32, ptr %37, align 4
  %39 = load ptr, ptr %9, align 8
  store i32 %38, ptr %39, align 4
  br label %40

40:                                               ; preds = %35, %17
  ret void
}

; Function Attrs: null_pointer_is_valid sspstrong uwtable
define internal i32 @dissect_acn_root_pdu_header(ptr noundef %0, ptr noundef %1, ptr noundef %2, ptr noundef %3, ptr noundef %4, ptr noundef %5, i8 noundef zeroext %6, i32 noundef %7, ptr noundef %8, ptr noundef %9, ptr noundef %10, i1 noundef zeroext %11, ptr noundef %12, i1 noundef zeroext %13) #0 {
  %15 = alloca ptr, align 8
  %16 = alloca ptr, align 8
  %17 = alloca ptr, align 8
  %18 = alloca ptr, align 8
  %19 = alloca ptr, align 8
  %20 = alloca ptr, align 8
  %21 = alloca i8, align 1
  %22 = alloca i32, align 4
  %23 = alloca ptr, align 8
  %24 = alloca ptr, align 8
  %25 = alloca ptr, align 8
  %26 = alloca i8, align 1
  %27 = alloca ptr, align 8
  %28 = alloca i8, align 1
  %29 = alloca i32, align 4
  %30 = alloca %struct._e_guid_t, align 4
  store ptr %0, ptr %15, align 8
  store ptr %1, ptr %16, align 8
  store ptr %2, ptr %17, align 8
  store ptr %3, ptr %18, align 8
  store ptr %4, ptr %19, align 8
  store ptr %5, ptr %20, align 8
  store i8 %6, ptr %21, align 1
  store i32 %7, ptr %22, align 4
  store ptr %8, ptr %23, align 8
  store ptr %9, ptr %24, align 8
  store ptr %10, ptr %25, align 8
  %31 = zext i1 %11 to i8
  store i8 %31, ptr %26, align 1
  store ptr %12, ptr %27, align 8
  %32 = zext i1 %13 to i8
  store i8 %32, ptr %28, align 1
  call void @llvm.lifetime.start.p0(i64 4, ptr %29) #7
  call void @llvm.lifetime.start.p0(i64 16, ptr %30) #7
  %33 = load ptr, ptr %18, align 8
  %34 = load ptr, ptr %19, align 8
  call void (ptr, ptr, ...) @proto_item_append_text(ptr noundef %33, ptr noundef @.str.749, ptr noundef %34)
  %35 = load ptr, ptr %20, align 8
  %36 = load i8, ptr %21, align 1
  %37 = load ptr, ptr %25, align 8
  %38 = load ptr, ptr %27, align 8
  call void @dissect_pdu_bit_flag_h(ptr noundef %35, i8 noundef zeroext %36, ptr noundef %29, ptr noundef %37, ptr noundef %38, i8 noundef zeroext 16)
  %39 = load ptr, ptr %15, align 8
  %40 = load i32, ptr %29, align 4
  call void @tvb_get_guid(ptr noundef %39, i32 noundef %40, ptr noundef %30, i32 noundef 0)
  %41 = load ptr, ptr %18, align 8
  %42 = load ptr, ptr %16, align 8
  %43 = getelementptr inbounds nuw %struct._packet_info, ptr %42, i32 0, i32 51
  %44 = load ptr, ptr %43, align 8
  %45 = call ptr @guid_to_str(ptr noundef %44, ptr noundef %30)
  call void (ptr, ptr, ...) @proto_item_append_text(ptr noundef %41, ptr noundef @.str.750, ptr noundef %45)
  %46 = load i8, ptr %26, align 1, !range !9, !noundef !10
  %47 = trunc i8 %46 to i1
  br i1 %47, label %48, label %56

48:                                               ; preds = %14
  %49 = load ptr, ptr %16, align 8
  %50 = getelementptr inbounds nuw %struct._packet_info, ptr %49, i32 0, i32 1
  %51 = load ptr, ptr %50, align 8
  %52 = load ptr, ptr %16, align 8
  %53 = getelementptr inbounds nuw %struct._packet_info, ptr %52, i32 0, i32 51
  %54 = load ptr, ptr %53, align 8
  %55 = call ptr @guid_to_str(ptr noundef %54, ptr noundef %30)
  call void (ptr, i32, ptr, ...) @col_add_fstr(ptr noundef %51, i32 noundef 25, ptr noundef @.str.751, ptr noundef %55)
  br label %56

56:                                               ; preds = %48, %14
  %57 = load i8, ptr %28, align 1, !range !9, !noundef !10
  %58 = trunc i8 %57 to i1
  br i1 %58, label %59, label %65

59:                                               ; preds = %56
  %60 = load ptr, ptr %17, align 8
  %61 = load i32, ptr @hf_acn_cid, align 4
  %62 = load ptr, ptr %15, align 8
  %63 = load i32, ptr %29, align 4
  %64 = call ptr @proto_tree_add_item(ptr noundef %60, i32 noundef %61, ptr noundef %62, i32 noundef %63, i32 noundef 16, i32 noundef 0)
  br label %71

65:                                               ; preds = %56
  %66 = load ptr, ptr %17, align 8
  %67 = load i32, ptr @hf_rdmnet_cid, align 4
  %68 = load ptr, ptr %15, align 8
  %69 = load i32, ptr %29, align 4
  %70 = call ptr @proto_tree_add_item(ptr noundef %66, i32 noundef %67, ptr noundef %68, i32 noundef %69, i32 noundef 16, i32 noundef 0)
  br label %71

71:                                               ; preds = %65, %59
  %72 = load ptr, ptr %20, align 8
  %73 = load i32, ptr %72, align 4
  %74 = load i8, ptr %21, align 1
  %75 = load i32, ptr %22, align 4
  %76 = load ptr, ptr %23, align 8
  %77 = load ptr, ptr %24, align 8
  %78 = load ptr, ptr %25, align 8
  %79 = load ptr, ptr %27, align 8
  %80 = load i32, ptr %79, align 4
  call void @dissect_pdu_bit_flag_d(i32 noundef %73, i8 noundef zeroext %74, i32 noundef %75, ptr noundef %76, ptr noundef %77, ptr noundef %78, i32 noundef %80, i1 noundef zeroext true)
  %81 = load ptr, ptr %23, align 8
  %82 = load i32, ptr %81, align 4
  %83 = load ptr, ptr %24, align 8
  %84 = load i32, ptr %83, align 4
  %85 = add i32 %82, %84
  call void @llvm.lifetime.end.p0(i64 16, ptr %30) #7
  call void @llvm.lifetime.end.p0(i64 4, ptr %29) #7
  ret i32 %85
}