; Function Attrs: null_pointer_is_valid sspstrong uwtable
define internal fastcc i32 @dissect_acn_root_pdu_header(ptr noundef %0, ptr noundef readonly captures(none) %1, ptr noundef %2, ptr noundef %3, ptr noundef %4, ptr noundef captures(none) %5, i8 noundef zeroext %6, i32 noundef %7, ptr noundef captures(none) initializes((0, 4)) %8, ptr noundef captures(none) initializes((0, 4)) %9, ptr noundef captures(none) %10, i1 noundef zeroext %11, ptr noundef captures(none) %12, i1 noundef zeroext %13) unnamed_addr #0 {
  %15 = alloca %struct._e_guid_t, align 4
  call void @llvm.lifetime.start.p0(i64 16, ptr nonnull %15) #7
  tail call void (ptr, ptr, ...) @proto_item_append_text(ptr noundef %3, ptr noundef nonnull @.str.749, ptr noundef %4)
  %16 = and i8 %6, 32
  %.not.i = icmp eq i8 %16, 0
  br i1 %.not.i, label %23, label %17

17:                                               ; preds = %14
  %18 = load i32, ptr %5, align 4
  %19 = getelementptr inbounds nuw i8, ptr %10, i64 8
  store i32 %18, ptr %19, align 4
  %20 = add i32 %18, 16
  store i32 %20, ptr %5, align 4
  %21 = load i32, ptr %12, align 4
  %22 = add i32 %21, 16
  store i32 %22, ptr %12, align 4
  br label %dissect_pdu_bit_flag_h.exit

23:                                               ; preds = %14
  %24 = getelementptr inbounds nuw i8, ptr %10, i64 8
  %25 = load i32, ptr %24, align 4
  br label %dissect_pdu_bit_flag_h.exit

dissect_pdu_bit_flag_h.exit:                      ; preds = %17, %23
  %.0 = phi i32 [ %25, %23 ], [ %18, %17 ]
  call void @tvb_get_guid(ptr noundef %0, i32 noundef %.0, ptr noundef nonnull %15, i32 noundef 0)
  %26 = getelementptr inbounds nuw i8, ptr %1, i64 408
  %27 = load ptr, ptr %26, align 8
  %28 = call ptr @guid_to_str(ptr noundef %27, ptr noundef nonnull %15)
  call void (ptr, ptr, ...) @proto_item_append_text(ptr noundef %3, ptr noundef nonnull @.str.750, ptr noundef %28)
  br i1 %11, label %29, label %34

29:                                               ; preds = %dissect_pdu_bit_flag_h.exit
  %30 = getelementptr inbounds nuw i8, ptr %1, i64 8
  %31 = load ptr, ptr %30, align 8
  %32 = load ptr, ptr %26, align 8
  %33 = call ptr @guid_to_str(ptr noundef %32, ptr noundef nonnull %15)
  call void (ptr, i32, ptr, ...) @col_add_fstr(ptr noundef %31, i32 noundef 25, ptr noundef nonnull @.str.751, ptr noundef %33)
  br label %34

34:                                               ; preds = %29, %dissect_pdu_bit_flag_h.exit
  %hf_acn_cid.val = load i32, ptr @hf_acn_cid, align 4
  %hf_rdmnet_cid.val = load i32, ptr @hf_rdmnet_cid, align 4
  %35 = select i1 %13, i32 %hf_acn_cid.val, i32 %hf_rdmnet_cid.val
  %36 = call ptr @proto_tree_add_item(ptr noundef %2, i32 noundef %35, ptr noundef %0, i32 noundef %.0, i32 noundef 16, i32 noundef 0)
  %37 = and i8 %6, 16
  %.not.i25 = icmp eq i8 %37, 0
  br i1 %.not.i25, label %45, label %38

38:                                               ; preds = %34
  %39 = load i32, ptr %12, align 4
  %40 = load i32, ptr %5, align 4
  store i32 %40, ptr %8, align 4
  %41 = sub i32 %7, %39
  store i32 %41, ptr %9, align 4
  %42 = getelementptr inbounds nuw i8, ptr %10, i64 12
  store i32 %40, ptr %42, align 4
  %43 = load i32, ptr %9, align 4
  %44 = getelementptr inbounds nuw i8, ptr %10, i64 16
  store i32 %43, ptr %44, align 4
  br label %dissect_pdu_bit_flag_d.exit

45:                                               ; preds = %34
  %46 = getelementptr inbounds nuw i8, ptr %10, i64 12
  %47 = load i32, ptr %46, align 4
  store i32 %47, ptr %8, align 4
  %48 = getelementptr inbounds nuw i8, ptr %10, i64 16
  %49 = load i32, ptr %48, align 4
  store i32 %49, ptr %9, align 4
  br label %dissect_pdu_bit_flag_d.exit

dissect_pdu_bit_flag_d.exit:                      ; preds = %38, %45
  %50 = phi i32 [ %43, %38 ], [ %49, %45 ]
  %51 = load i32, ptr %8, align 4
  %52 = add i32 %50, %51
  call void @llvm.lifetime.end.p0(i64 16, ptr nonnull %15) #7
  ret i32 %52
}